; Function Attrs: nounwind uwtable
define hidden i32 @mbedtls_rsa_export(ptr noundef %0, ptr noundef %1, ptr noundef %2, ptr noundef %3, ptr noundef %4, ptr noundef %5) local_unnamed_addr #0 {
  %7 = getelementptr inbounds nuw i8, ptr %0, i64 16
  %8 = tail call i32 @mbedtls_mpi_cmp_int(ptr noundef nonnull %7, i64 noundef 0) #14
  %.not = icmp eq i32 %8, 0
  br i1 %.not, label %.critedge, label %9

9:                                                ; preds = %6
  %10 = getelementptr inbounds nuw i8, ptr %0, i64 64
  %11 = tail call i32 @mbedtls_mpi_cmp_int(ptr noundef nonnull %10, i64 noundef 0) #14
  %.not39 = icmp eq i32 %11, 0
  br i1 %.not39, label %.critedge, label %12

12:                                               ; preds = %9
  %13 = getelementptr inbounds nuw i8, ptr %0, i64 80
  %14 = tail call i32 @mbedtls_mpi_cmp_int(ptr noundef nonnull %13, i64 noundef 0) #14
  %.not40 = icmp eq i32 %14, 0
  br i1 %.not40, label %.critedge, label %15

15:                                               ; preds = %12
  %16 = getelementptr inbounds nuw i8, ptr %0, i64 48
  %17 = tail call i32 @mbedtls_mpi_cmp_int(ptr noundef nonnull %16, i64 noundef 0) #14
  %.not41 = icmp eq i32 %17, 0
  br i1 %.not41, label %.critedge, label %18

18:                                               ; preds = %15
  %19 = getelementptr inbounds nuw i8, ptr %0, i64 32
  %20 = tail call i32 @mbedtls_mpi_cmp_int(ptr noundef nonnull %19, i64 noundef 0) #14
  %.not52 = icmp eq i32 %20, 0
  br i1 %.not52, label %.critedge, label %24

.critedge:                                        ; preds = %15, %12, %9, %6, %18
  %21 = icmp ne ptr %2, null
  %22 = icmp ne ptr %3, null
  %or.cond = or i1 %21, %22
  %23 = icmp ne ptr %4, null
  %or.cond3 = or i1 %or.cond, %23
  br i1 %or.cond3, label %44, label %24

24:                                               ; preds = %.critedge, %18
  %.not42 = icmp eq ptr %1, null
  br i1 %.not42, label %27, label %25

25:                                               ; preds = %24
  %26 = tail call i32 @mbedtls_mpi_copy(ptr noundef nonnull %1, ptr noundef nonnull %7) #14
  %.not43 = icmp eq i32 %26, 0
  br i1 %.not43, label %27, label %44

27:                                               ; preds = %25, %24
  %.not44 = icmp eq ptr %2, null
  br i1 %.not44, label %31, label %28

28:                                               ; preds = %27
  %29 = getelementptr inbounds nuw i8, ptr %0, i64 64
  %30 = tail call i32 @mbedtls_mpi_copy(ptr noundef nonnull %2, ptr noundef nonnull %29) #14
  %.not45 = icmp eq i32 %30, 0
  br i1 %.not45, label %31, label %44

31:                                               ; preds = %28, %27
  %.not46 = icmp eq ptr %3, null
  br i1 %.not46, label %35, label %32

32:                                               ; preds = %31
  %33 = getelementptr inbounds nuw i8, ptr %0, i64 80
  %34 = tail call i32 @mbedtls_mpi_copy(ptr noundef nonnull %3, ptr noundef nonnull %33) #14
  %.not47 = icmp eq i32 %34, 0
  br i1 %.not47, label %35, label %44

35:                                               ; preds = %32, %31
  %.not48 = icmp eq ptr %4, null
  br i1 %.not48, label %39, label %36

36:                                               ; preds = %35
  %37 = getelementptr inbounds nuw i8, ptr %0, i64 48
  %38 = tail call i32 @mbedtls_mpi_copy(ptr noundef nonnull %4, ptr noundef nonnull %37) #14
  %.not49 = icmp eq i32 %38, 0
  br i1 %.not49, label %39, label %44

39:                                               ; preds = %36, %35
  %.not50 = icmp eq ptr %5, null
  br i1 %.not50, label %43, label %40

40:                                               ; preds = %39
  %41 = getelementptr inbounds nuw i8, ptr %0, i64 32
  %42 = tail call i32 @mbedtls_mpi_copy(ptr noundef nonnull %5, ptr noundef nonnull %41) #14
  %.not51 = icmp eq i32 %42, 0
  br i1 %.not51, label %43, label %44

43:                                               ; preds = %40, %39
  br label %44

44:                                               ; preds = %25, %28, %32, %36, %40, %.critedge, %43
  %.0 = phi i32 [ 0, %43 ], [ -16512, %.critedge ], [ %26, %25 ], [ %30, %28 ], [ %34, %32 ], [ %38, %36 ], [ %42, %40 ]
  ret i32 %.0
}